; Function Attrs: mustprogress nofree norecurse nosync nounwind willreturn memory(none) uwtable
define dso_local noundef zeroext i1 @_ZN4llvm3X867isMOVSXEj(i32 noundef %0) local_unnamed_addr #0 {
  %switch.tableidx = add i32 %0, -2665
  %2 = icmp ult i32 %switch.tableidx, 20
  %switch.cast = trunc i32 %switch.tableidx to i20
  %switch.downshift = lshr i20 -305811, %switch.cast
  %switch.masked = trunc i20 %switch.downshift to i1
  %.0 = select i1 %2, i1 %switch.masked, i1 false
  ret i1 %.0
}